target datalayout = "e-m:e-p270:32:32-p271:32:32-p272:64:64-i64:64-i128:128-f80:128-n8:16:32:64-S128"
target triple = "x86_64-pc-linux-gnu"

%struct.AVFormatContext = type { ptr, ptr, ptr, ptr, ptr, i32, i32, ptr, i32, ptr, i32, ptr, ptr, i64, i64, i64, i32, i32, i32, i64, i64, ptr, i32, i32, ptr, i32, i32, i32, i32, ptr, i64, i32, i32, %struct.AVIOInterruptCB, i32, i32, i32, i32, i64, i32, i32, i32, i32, i32, i32, i32, i32, i32, i32, i32, i32, i64, i32, i32, i32, i32, i32, ptr, ptr, ptr, ptr, i32, ptr, ptr, ptr, ptr, i32, ptr, ptr, i64, ptr, ptr, ptr, i64 }
%struct.AVIOInterruptCB = type { ptr, ptr }
%struct.AVStream = type { ptr, i32, i32, ptr, ptr, %struct.AVRational, i64, i64, i64, i32, i32, %struct.AVRational, ptr, %struct.AVRational, %struct.AVPacket, i32, %struct.AVRational, i32 }
%struct.AVPacket = type { ptr, i64, i64, ptr, i32, i32, i32, ptr, i32, i64, i64, ptr, ptr, %struct.AVRational }
%struct.AVRational = type { i32, i32 }
%struct.AVCodecParameters = type { i32, i32, i32, ptr, i32, ptr, i32, i32, i64, i32, i32, i32, i32, i32, i32, %struct.AVRational, %struct.AVRational, i32, i32, i32, i32, i32, i32, i32, %struct.AVChannelLayout, i32, i32, i32, i32, i32, i32 }
%struct.AVChannelLayout = type { i32, i32, %union.anon, ptr }
%union.anon = type { i64 }

; Function Attrs: nounwind uwtable
define internal i32 @apm_read_packet(ptr noundef %0, ptr noundef %1) #0 {
  %3 = alloca i32, align 4
  %4 = alloca ptr, align 8
  %5 = alloca ptr, align 8
  %6 = alloca i32, align 4
  %7 = alloca ptr, align 8
  %8 = alloca i32, align 4
  store ptr %0, ptr %4, align 8, !tbaa !15
  store ptr %1, ptr %5, align 8, !tbaa !63
  call void @llvm.lifetime.start.p0(i64 4, ptr %6) #6
  call void @llvm.lifetime.start.p0(i64 8, ptr %7) #6
  %9 = load ptr, ptr %4, align 8, !tbaa !15
  %10 = getelementptr inbounds nuw %struct.AVFormatContext, ptr %9, i32 0, i32 7
  %11 = load ptr, ptr %10, align 8, !tbaa !65
  %12 = getelementptr inbounds ptr, ptr %11, i64 0
  %13 = load ptr, ptr %12, align 8, !tbaa !17
  %14 = getelementptr inbounds nuw %struct.AVStream, ptr %13, i32 0, i32 3
  %15 = load ptr, ptr %14, align 8, !tbaa !34
  store ptr %15, ptr %7, align 8, !tbaa !41
  %16 = load ptr, ptr %4, align 8, !tbaa !15
  %17 = getelementptr inbounds nuw %struct.AVFormatContext, ptr %16, i32 0, i32 4
  %18 = load ptr, ptr %17, align 8, !tbaa !19
  %19 = load ptr, ptr %5, align 8, !tbaa !63
  %20 = call i32 @av_get_packet(ptr noundef %18, ptr noundef %19, i32 noundef 4096)
  store i32 %20, ptr %6, align 4, !tbaa !42
  %21 = icmp slt i32 %20, 0
  br i1 %21, label %22, label %24

22:                                               ; preds = %2
  %23 = load i32, ptr %6, align 4, !tbaa !42
  store i32 %23, ptr %3, align 4
  store i32 1, ptr %8, align 4
  br label %45

24:                                               ; preds = %2
  %25 = load ptr, ptr %5, align 8, !tbaa !63
  %26 = getelementptr inbounds nuw %struct.AVPacket, ptr %25, i32 0, i32 6
  %27 = load i32, ptr %26, align 8, !tbaa !66
  %28 = and i32 %27, -3
  store i32 %28, ptr %26, align 8, !tbaa !66
  %29 = load ptr, ptr %5, align 8, !tbaa !63
  %30 = getelementptr inbounds nuw %struct.AVPacket, ptr %29, i32 0, i32 5
  store i32 0, ptr %30, align 4, !tbaa !67
  %31 = load i32, ptr %6, align 4, !tbaa !42
  %32 = load ptr, ptr %7, align 8, !tbaa !41
  %33 = getelementptr inbounds nuw %struct.AVCodecParameters, ptr %32, i32 0, i32 9
  %34 = load i32, ptr %33, align 8, !tbaa !48
  %35 = sdiv i32 8, %34
  %36 = mul nsw i32 %31, %35
  %37 = load ptr, ptr %7, align 8, !tbaa !41
  %38 = getelementptr inbounds nuw %struct.AVCodecParameters, ptr %37, i32 0, i32 24
  %39 = getelementptr inbounds nuw %struct.AVChannelLayout, ptr %38, i32 0, i32 1
  %40 = load i32, ptr %39, align 4, !tbaa !52
  %41 = sdiv i32 %36, %40
  %42 = sext i32 %41 to i64
  %43 = load ptr, ptr %5, align 8, !tbaa !63
  %44 = getelementptr inbounds nuw %struct.AVPacket, ptr %43, i32 0, i32 9
  store i64 %42, ptr %44, align 8, !tbaa !68
  store i32 0, ptr %3, align 4
  store i32 1, ptr %8, align 4
  br label %45

45:                                               ; preds = %24, %22
  call void @llvm.lifetime.end.p0(i64 8, ptr %7) #6
  call void @llvm.lifetime.end.p0(i64 4, ptr %6) #6
  %46 = load i32, ptr %3, align 4
  ret i32 %46
}